target datalayout = "e-m:e-p270:32:32-p271:32:32-p272:64:64-i64:64-i128:128-f80:128-n8:16:32:64-S128"
target triple = "x86_64-unknown-linux-gnu"

%"class.icu_75::TransliterationRuleSet" = type { ptr, ptr, ptr, [257 x i32], i32 }
%"class.icu_75::UVector" = type { %"class.icu_75::UObject", i32, i32, ptr, ptr, ptr }
%"class.icu_75::UObject" = type { ptr }

; Function Attrs: mustprogress nounwind uwtable
define linkonce_odr noundef i32 @_ZNK6icu_757UVector4sizeEv(ptr noundef nonnull align 8 dereferenceable(40) %this) #3 comdat align 2 {
entry:
  %this.addr = alloca ptr, align 8
  store ptr %this, ptr %this.addr, align 8
  %this1 = load ptr, ptr %this.addr, align 8
  %count = getelementptr inbounds %"class.icu_75::UVector", ptr %this1, i32 0, i32 1
  %0 = load i32, ptr %count, align 8
  ret i32 %0
}

; Function Attrs: mustprogress uwtable
define noundef nonnull align 8 dereferenceable(200) ptr @_ZNK6icu_7522TransliterationRuleSet18getSourceTargetSetERNS_10UnicodeSetEa(ptr noundef nonnull align 8 dereferenceable(1056) %this, ptr noundef nonnull align 8 dereferenceable(200) %result, i8 noundef signext %getTarget) #0 align 2 {
entry:
  %this.addr = alloca ptr, align 8
  %result.addr = alloca ptr, align 8
  %getTarget.addr = alloca i8, align 1
  %count = alloca i32, align 4
  %i = alloca i32, align 4
  %r = alloca ptr, align 8
  store ptr %this, ptr %this.addr, align 8
  store ptr %result, ptr %result.addr, align 8
  store i8 %getTarget, ptr %getTarget.addr, align 1
  %this1 = load ptr, ptr %this.addr, align 8
  %0 = load ptr, ptr %result.addr, align 8
  %call = call noundef nonnull align 8 dereferenceable(200) ptr @_ZN6icu_7510UnicodeSet5clearEv(ptr noundef nonnull align 8 dereferenceable(200) %0)
  %ruleVector = getelementptr inbounds %"class.icu_75::TransliterationRuleSet", ptr %this1, i32 0, i32 1
  %1 = load ptr, ptr %ruleVector, align 8
  %call2 = call noundef i32 @_ZNK6icu_757UVector4sizeEv(ptr noundef nonnull align 8 dereferenceable(40) %1)
  store i32 %call2, ptr %count, align 4
  store i32 0, ptr %i, align 4
  br label %for.cond

for.cond:                                         ; preds = %for.inc, %entry
  %2 = load i32, ptr %i, align 4
  %3 = load i32, ptr %count, align 4
  %cmp = icmp slt i32 %2, %3
  br i1 %cmp, label %for.body, label %for.end

for.body:                                         ; preds = %for.cond
  %ruleVector3 = getelementptr inbounds %"class.icu_75::TransliterationRuleSet", ptr %this1, i32 0, i32 1
  %4 = load ptr, ptr %ruleVector3, align 8
  %5 = load i32, ptr %i, align 4
  %call4 = call noundef ptr @_ZNK6icu_757UVector9elementAtEi(ptr noundef nonnull align 8 dereferenceable(40) %4, i32 noundef %5)
  store ptr %call4, ptr %r, align 8
  %6 = load i8, ptr %getTarget.addr, align 1
  %tobool = icmp ne i8 %6, 0
  br i1 %tobool, label %if.then, label %if.else

if.then:                                          ; preds = %for.body
  %7 = load ptr, ptr %r, align 8
  %8 = load ptr, ptr %result.addr, align 8
  call void @_ZNK6icu_7519TransliterationRule14addTargetSetToERNS_10UnicodeSetE(ptr noundef nonnull align 8 dereferenceable(136) %7, ptr noundef nonnull align 8 dereferenceable(200) %8)
  br label %if.end

if.else:                                          ; preds = %for.body
  %9 = load ptr, ptr %r, align 8
  %10 = load ptr, ptr %result.addr, align 8
  call void @_ZNK6icu_7519TransliterationRule14addSourceSetToERNS_10UnicodeSetE(ptr noundef nonnull align 8 dereferenceable(136) %9, ptr noundef nonnull align 8 dereferenceable(200) %10)
  br label %if.end

if.end:                                           ; preds = %if.else, %if.then
  br label %for.inc

for.inc:                                          ; preds = %if.end
  %11 = load i32, ptr %i, align 4
  %inc = add nsw i32 %11, 1
  store i32 %inc, ptr %i, align 4
  br label %for.cond, !llvm.loop !16

for.end:                                          ; preds = %for.cond
  %12 = load ptr, ptr %result.addr, align 8
  ret ptr %12
}