; Function Attrs: mustprogress uwtable
define noundef nonnull align 8 dereferenceable(200) ptr @_ZNK6icu_7522TransliterationRuleSet18getSourceTargetSetERNS_10UnicodeSetEa(ptr nocapture noundef nonnull readonly align 8 dereferenceable(1056) %this, ptr noundef nonnull returned align 8 dereferenceable(200) %result, i8 noundef signext %getTarget) local_unnamed_addr #0 align 2 {
entry:
  %call = tail call noundef nonnull align 8 dereferenceable(200) ptr @_ZN6icu_7510UnicodeSet5clearEv(ptr noundef nonnull align 8 dereferenceable(200) %result)
  %ruleVector = getelementptr inbounds i8, ptr %this, i64 8
  %0 = load ptr, ptr %ruleVector, align 8
  %count.i = getelementptr inbounds i8, ptr %0, i64 8
  %1 = load i32, ptr %count.i, align 8
  %cmp7 = icmp sgt i32 %1, 0
  br i1 %cmp7, label %for.body.lr.ph, label %for.end

for.body.lr.ph:                                   ; preds = %entry
  %tobool.not = icmp eq i8 %getTarget, 0
  br i1 %tobool.not, label %for.body.us, label %for.body

for.body.us:                                      ; preds = %for.body.lr.ph, %for.body.us
  %i.08.us = phi i32 [ %inc.us, %for.body.us ], [ 0, %for.body.lr.ph ]
  %2 = load ptr, ptr %ruleVector, align 8
  %call4.us = tail call noundef ptr @_ZNK6icu_757UVector9elementAtEi(ptr noundef nonnull align 8 dereferenceable(40) %2, i32 noundef %i.08.us)
  tail call void @_ZNK6icu_7519TransliterationRule14addSourceSetToERNS_10UnicodeSetE(ptr noundef nonnull align 8 dereferenceable(136) %call4.us, ptr noundef nonnull align 8 dereferenceable(200) %result)
  %inc.us = add nuw nsw i32 %i.08.us, 1
  %exitcond10.not = icmp eq i32 %inc.us, %1
  br i1 %exitcond10.not, label %for.end, label %for.body.us, !llvm.loop !17

for.body:                                         ; preds = %for.body.lr.ph, %for.body
  %i.08 = phi i32 [ %inc, %for.body ], [ 0, %for.body.lr.ph ]
  %3 = load ptr, ptr %ruleVector, align 8
  %call4 = tail call noundef ptr @_ZNK6icu_757UVector9elementAtEi(ptr noundef nonnull align 8 dereferenceable(40) %3, i32 noundef %i.08)
  tail call void @_ZNK6icu_7519TransliterationRule14addTargetSetToERNS_10UnicodeSetE(ptr noundef nonnull align 8 dereferenceable(136) %call4, ptr noundef nonnull align 8 dereferenceable(200) %result)
  %inc = add nuw nsw i32 %i.08, 1
  %exitcond.not = icmp eq i32 %inc, %1
  br i1 %exitcond.not, label %for.end, label %for.body, !llvm.loop !17

for.end:                                          ; preds = %for.body, %for.body.us, %entry
  ret ptr %result
}